; Function Attrs: nounwind uwtable
define range(i32 -541478725, 1) i32 @ff_thread_get_packet(ptr noundef readonly captures(none) %0, ptr noundef %1) local_unnamed_addr #0 {
  %3 = getelementptr inbounds nuw i8, ptr %0, i64 40
  %4 = load ptr, ptr %3, align 8, !tbaa !4
  %5 = getelementptr inbounds nuw i8, ptr %4, i64 32
  %6 = load ptr, ptr %5, align 8, !tbaa !27
  %7 = getelementptr inbounds nuw i8, ptr %6, i64 256
  %8 = load ptr, ptr %7, align 8, !tbaa !51
  %9 = getelementptr inbounds nuw i8, ptr %8, i64 24
  %10 = load ptr, ptr %9, align 8, !tbaa !52
  %.not = icmp eq ptr %10, null
  br i1 %.not, label %11, label %14

11:                                               ; preds = %2
  %12 = getelementptr inbounds nuw i8, ptr %8, i64 56
  %13 = load i32, ptr %12, align 8, !tbaa !54
  %.not6 = icmp eq i32 %13, 0
  br i1 %.not6, label %15, label %14

14:                                               ; preds = %11, %2
  tail call void @av_packet_move_ref(ptr noundef %1, ptr noundef nonnull %8) #11
  br label %19

15:                                               ; preds = %11
  %16 = getelementptr inbounds nuw i8, ptr %4, i64 120
  %17 = load i32, ptr %16, align 8, !tbaa !55
  %.not7 = icmp eq i32 %17, 0
  %18 = select i1 %.not7, i32 -11, i32 -541478725
  br label %19

19:                                               ; preds = %15, %14
  %.0 = phi i32 [ 0, %14 ], [ %18, %15 ]
  ret i32 %.0
}